; Function Attrs: mustprogress nounwind uwtable
define hidden noundef range(i32 -2147483648, 2147483647) i32 @_ZN10ValueStack4lockEP11Instruction(ptr nocapture noundef nonnull align 8 dereferenceable(81) %0, ptr noundef %1) local_unnamed_addr #0 align 2 {
  %3 = getelementptr inbounds i8, ptr %0, i64 72
  %4 = load ptr, ptr %3, align 8
  %5 = icmp eq ptr %4, null
  br i1 %5, label %6, label %12

6:                                                ; preds = %2
  %7 = tail call noundef ptr @_Z23resource_allocate_bytesmN17AllocFailStrategy13AllocFailEnumE(i64 noundef 24, i32 noundef 0) #8
  %8 = tail call noundef ptr @_ZN30GrowableArrayResourceAllocator8allocateEii(i32 noundef 2, i32 noundef 8) #8
  store i32 0, ptr %7, align 4
  %9 = getelementptr inbounds i8, ptr %7, i64 4
  store i32 2, ptr %9, align 4
  %10 = getelementptr inbounds i8, ptr %7, i64 8
  store ptr %8, ptr %10, align 8
  tail call void @llvm.memset.p0.i64(ptr noundef nonnull align 8 dereferenceable(16) %8, i8 0, i64 16, i1 false)
  %11 = getelementptr inbounds i8, ptr %7, i64 16
  store i64 0, ptr %11, align 8
  store ptr %7, ptr %3, align 8
  br label %12

12:                                               ; preds = %6, %2
  %13 = phi ptr [ %7, %6 ], [ %4, %2 ]
  %14 = load i32, ptr %13, align 8
  %15 = getelementptr inbounds i8, ptr %13, i64 4
  %16 = load i32, ptr %15, align 4
  %17 = icmp eq i32 %14, %16
  br i1 %17, label %18, label %_ZN26GrowableArrayWithAllocatorIP11Instruction13GrowableArrayIS1_EE4pushERKS1_.exit

18:                                               ; preds = %12
  %19 = add nsw i32 %14, 1
  %20 = icmp sgt i32 %14, -1
  %21 = xor i32 %14, -2147483648
  %22 = and i32 %21, %19
  %23 = icmp eq i32 %22, 0
  %24 = and i1 %20, %23
  %25 = tail call range(i32 0, 33) i32 @llvm.ctlz.i32(i32 %19, i1 true)
  %26 = sub nuw nsw i32 32, %25
  %27 = shl nuw i32 1, %26
  %.0.i.i.i.i.i = select i1 %24, i32 %19, i32 %27
  tail call void @_ZN26GrowableArrayWithAllocatorIP11Instruction13GrowableArrayIS1_EE9expand_toEi(ptr noundef nonnull align 8 dereferenceable(16) %13, i32 noundef %.0.i.i.i.i.i)
  %.pre.i.i = load i32, ptr %13, align 8
  br label %_ZN26GrowableArrayWithAllocatorIP11Instruction13GrowableArrayIS1_EE4pushERKS1_.exit

_ZN26GrowableArrayWithAllocatorIP11Instruction13GrowableArrayIS1_EE4pushERKS1_.exit: ; preds = %12, %18
  %28 = phi i32 [ %.pre.i.i, %18 ], [ %14, %12 ]
  %29 = add nsw i32 %28, 1
  store i32 %29, ptr %13, align 8
  %30 = getelementptr inbounds i8, ptr %13, i64 8
  %31 = load ptr, ptr %30, align 8
  %32 = sext i32 %28 to i64
  %33 = getelementptr inbounds ptr, ptr %31, i64 %32
  store ptr %1, ptr %33, align 8
  br label %34

34:                                               ; preds = %_ZNK10ValueStack10locks_sizeEv.exit.i, %_ZN26GrowableArrayWithAllocatorIP11Instruction13GrowableArrayIS1_EE4pushERKS1_.exit
  %.07.i = phi ptr [ %0, %_ZN26GrowableArrayWithAllocatorIP11Instruction13GrowableArrayIS1_EE4pushERKS1_.exit ], [ %43, %_ZNK10ValueStack10locks_sizeEv.exit.i ]
  %.056.i = phi i32 [ 0, %_ZN26GrowableArrayWithAllocatorIP11Instruction13GrowableArrayIS1_EE4pushERKS1_.exit ], [ %41, %_ZNK10ValueStack10locks_sizeEv.exit.i ]
  %35 = getelementptr inbounds i8, ptr %.07.i, i64 72
  %36 = load ptr, ptr %35, align 8
  %37 = icmp eq ptr %36, null
  br i1 %37, label %_ZNK10ValueStack10locks_sizeEv.exit.i, label %38

38:                                               ; preds = %34
  %39 = load i32, ptr %36, align 4
  br label %_ZNK10ValueStack10locks_sizeEv.exit.i

_ZNK10ValueStack10locks_sizeEv.exit.i:            ; preds = %38, %34
  %40 = phi i32 [ %39, %38 ], [ 0, %34 ]
  %41 = add nsw i32 %40, %.056.i
  %42 = getelementptr inbounds i8, ptr %.07.i, i64 8
  %43 = load ptr, ptr %42, align 8
  %.not.i = icmp eq ptr %43, null
  br i1 %.not.i, label %_ZNK10ValueStack16total_locks_sizeEv.exit, label %34, !llvm.loop !20

_ZNK10ValueStack16total_locks_sizeEv.exit:        ; preds = %_ZNK10ValueStack10locks_sizeEv.exit.i
  %44 = load ptr, ptr %0, align 8
  %45 = getelementptr inbounds i8, ptr %44, i64 64
  %46 = load i32, ptr %45, align 8
  %47 = icmp slt i32 %46, %41
  br i1 %47, label %48, label %_ZN7IRScope23set_min_number_of_locksEi.exit

48:                                               ; preds = %_ZNK10ValueStack16total_locks_sizeEv.exit
  store i32 %41, ptr %45, align 8
  br label %_ZN7IRScope23set_min_number_of_locksEi.exit

_ZN7IRScope23set_min_number_of_locksEi.exit:      ; preds = %_ZNK10ValueStack16total_locks_sizeEv.exit, %48
  %49 = add nsw i32 %41, -1
  ret i32 %49
}